target datalayout = "e-m:e-p270:32:32-p271:32:32-p272:64:64-i64:64-i128:128-f80:128-n8:16:32:64-S128"
target triple = "x86_64-pc-linux-gnu"

@proto_register_dbus.ett = internal global [9 x ptr] [ptr @ett_dbus, ptr @ett_dbus_flags, ptr @ett_dbus_header_field_array, ptr @ett_dbus_header_field, ptr @ett_dbus_body, ptr @ett_dbus_type_array, ptr @ett_dbus_type_struct, ptr @ett_dbus_type_variant, ptr @ett_dbus_type_dict_entry], align 16
@.str.132 = private unnamed_addr constant [6 x i8] c"D-Bus\00", align 1
@.str.133 = private unnamed_addr constant [5 x i8] c"dbus\00", align 1
@proto_dbus = internal global i32 0, align 4
@dbus_handle = internal global ptr null, align 8
@.str.134 = private unnamed_addr constant [9 x i8] c"dbus.tcp\00", align 1
@dbus_handle_tcp = internal global ptr null, align 8
@.str.135 = private unnamed_addr constant [14 x i8] c"resolve_names\00", align 1
@.str.136 = private unnamed_addr constant [43 x i8] c"Resolve unique names into well-known names\00", align 1
@.str.137 = private unnamed_addr constant [203 x i8] c"Show the first inferred well-known bus name (e.g. \22com.example.MusicPlayer1\22) instead of the unique connection name (e.g. \22:1.18\22). Might be confusing if a connection owns more than one well-known name.\00", align 1
@dbus_resolve_names = internal global i8 1, align 1
@request_info_map = internal global ptr null, align 8
@unique_name_map = internal global ptr null, align 8

; Function Attrs: null_pointer_is_valid sspstrong uwtable
define hidden void @proto_register_dbus() #0 {
  %1 = alloca ptr, align 8
  %2 = alloca ptr, align 8
  call void @llvm.lifetime.start.p0(i64 8, ptr %1) #11
  call void @llvm.lifetime.start.p0(i64 8, ptr %2) #11
  %3 = call i32 @proto_register_protocol(ptr noundef @.str.132, ptr noundef @.str.132, ptr noundef @.str.133)
  store i32 %3, ptr @proto_dbus, align 4
  %4 = load i32, ptr @proto_dbus, align 4
  call void @proto_register_field_array(i32 noundef %4, ptr noundef @proto_register_dbus.hf, i32 noundef 44)
  call void @proto_register_subtree_array(ptr noundef @proto_register_dbus.ett, i32 noundef 9)
  %5 = load i32, ptr @proto_dbus, align 4
  %6 = call ptr @expert_register_protocol(i32 noundef %5)
  store ptr %6, ptr %1, align 8
  %7 = load ptr, ptr %1, align 8
  call void @expert_register_field_array(ptr noundef %7, ptr noundef @proto_register_dbus.ei, i32 noundef 21)
  %8 = load i32, ptr @proto_dbus, align 4
  %9 = call ptr @register_dissector(ptr noundef @.str.133, ptr noundef @dissect_dbus, i32 noundef %8)
  store ptr %9, ptr @dbus_handle, align 8
  %10 = load i32, ptr @proto_dbus, align 4
  %11 = call ptr @register_dissector(ptr noundef @.str.134, ptr noundef @dissect_dbus_tcp, i32 noundef %10)
  store ptr %11, ptr @dbus_handle_tcp, align 8
  %12 = load i32, ptr @proto_dbus, align 4
  %13 = call ptr @prefs_register_protocol(i32 noundef %12, ptr noundef null)
  store ptr %13, ptr %2, align 8
  %14 = load ptr, ptr %2, align 8
  call void @prefs_register_bool_preference(ptr noundef %14, ptr noundef @.str.135, ptr noundef @.str.136, ptr noundef @.str.137, ptr noundef @dbus_resolve_names)
  %15 = call ptr @wmem_epan_scope()
  %16 = call ptr @wmem_file_scope()
  %17 = call noalias ptr @wmem_map_new_autoreset(ptr noundef %15, ptr noundef %16, ptr noundef @wmem_str_hash, ptr noundef @g_str_equal)
  store ptr %17, ptr @request_info_map, align 8
  %18 = call ptr @wmem_epan_scope()
  %19 = call ptr @wmem_file_scope()
  %20 = call noalias ptr @wmem_map_new_autoreset(ptr noundef %18, ptr noundef %19, ptr noundef @wmem_str_hash, ptr noundef @g_str_equal)
  store ptr %20, ptr @unique_name_map, align 8
  call void @llvm.lifetime.end.p0(i64 8, ptr %2) #11
  call void @llvm.lifetime.end.p0(i64 8, ptr %1) #11
  ret void
}