; Function Attrs: null_pointer_is_valid sspstrong uwtable
define hidden void @proto_register_dbus() local_unnamed_addr #0 {
  %1 = tail call i32 @proto_register_protocol(ptr noundef nonnull @.str.132, ptr noundef nonnull @.str.132, ptr noundef nonnull @.str.133)
  store i32 %1, ptr @proto_dbus, align 4
  tail call void @proto_register_field_array(i32 noundef %1, ptr noundef nonnull @proto_register_dbus.hf, i32 noundef 44)
  tail call void @proto_register_subtree_array(ptr noundef nonnull @proto_register_dbus.ett, i32 noundef 9)
  %2 = load i32, ptr @proto_dbus, align 4
  %3 = tail call ptr @expert_register_protocol(i32 noundef %2)
  tail call void @expert_register_field_array(ptr noundef %3, ptr noundef nonnull @proto_register_dbus.ei, i32 noundef 21)
  %4 = load i32, ptr @proto_dbus, align 4
  %5 = tail call ptr @register_dissector(ptr noundef nonnull @.str.133, ptr noundef nonnull @dissect_dbus, i32 noundef %4)
  store ptr %5, ptr @dbus_handle, align 8
  %6 = load i32, ptr @proto_dbus, align 4
  %7 = tail call ptr @register_dissector(ptr noundef nonnull @.str.134, ptr noundef nonnull @dissect_dbus_tcp, i32 noundef %6)
  store ptr %7, ptr @dbus_handle_tcp, align 8
  %8 = load i32, ptr @proto_dbus, align 4
  %9 = tail call ptr @prefs_register_protocol(i32 noundef %8, ptr noundef null)
  tail call void @prefs_register_bool_preference(ptr noundef %9, ptr noundef nonnull @.str.135, ptr noundef nonnull @.str.136, ptr noundef nonnull @.str.137, ptr noundef nonnull @dbus_resolve_names)
  %10 = tail call ptr @wmem_epan_scope()
  %11 = tail call ptr @wmem_file_scope()
  %12 = tail call noalias ptr @wmem_map_new_autoreset(ptr noundef %10, ptr noundef %11, ptr noundef nonnull @wmem_str_hash, ptr noundef nonnull @g_str_equal)
  store ptr %12, ptr @request_info_map, align 8
  %13 = tail call ptr @wmem_epan_scope()
  %14 = tail call ptr @wmem_file_scope()
  %15 = tail call noalias ptr @wmem_map_new_autoreset(ptr noundef %13, ptr noundef %14, ptr noundef nonnull @wmem_str_hash, ptr noundef nonnull @g_str_equal)
  store ptr %15, ptr @unique_name_map, align 8
  ret void
}